; ModuleID = '149.c'
source_filename = "149.c"
target datalayout = "e-m:e-p270:32:32-p271:32:32-p272:64:64-i64:64-f80:128-n8:16:32:64-S128"
target triple = "x86_64-pc-linux-gnu"

@.str = private unnamed_addr constant [3 x i8] c"%c\00", align 1

; Function Attrs: noinline nounwind uwtable
define dso_local i32 @main() #0 {
  %1 = alloca i32, align 4
  %2 = alloca i32, align 4
  %3 = alloca i32, align 4
  %4 = alloca i32, align 4
  %5 = alloca [10 x i32], align 16
  %6 = alloca i32, align 4
  %7 = alloca i32, align 4
  %8 = alloca i32, align 4
  %9 = alloca i32, align 4
  %10 = alloca [1000 x i8], align 16
  %11 = alloca [100 x i8], align 16
  %12 = alloca [100 x i8], align 16
  store i32 0, i32* %1, align 4
  store i32 0, i32* %2, align 4
  store i32 0, i32* %3, align 4
  store i32 0, i32* %4, align 4
  store i32 0, i32* %6, align 4
  store i32 0, i32* %7, align 4
  store i32 0, i32* %8, align 4
  store i32 0, i32* %9, align 4
  %13 = getelementptr inbounds [1000 x i8], [1000 x i8]* %10, i64 0, i64 0
  %14 = call i32 (i8*, ...) bitcast (i32 (...)* @gets to i32 (i8*, ...)*)(i8* %13)
  %15 = getelementptr inbounds [100 x i8], [100 x i8]* %11, i64 0, i64 0
  %16 = call i32 (i8*, ...) bitcast (i32 (...)* @gets to i32 (i8*, ...)*)(i8* %15)
  %17 = getelementptr inbounds [100 x i8], [100 x i8]* %12, i64 0, i64 0
  %18 = call i32 (i8*, ...) bitcast (i32 (...)* @gets to i32 (i8*, ...)*)(i8* %17)
  store i32 0, i32* %7, align 4
  br label %19

19:                                               ; preds = %69, %0
  %20 = load i32, i32* %7, align 4
  %21 = icmp slt i32 %20, 100
  br i1 %21, label %22, label %72

22:                                               ; preds = %19
  %23 = load i32, i32* %7, align 4
  %24 = sext i32 %23 to i64
  %25 = getelementptr inbounds [1000 x i8], [1000 x i8]* %10, i64 0, i64 %24
  %26 = load i8, i8* %25, align 1
  %27 = sext i8 %26 to i32
  %28 = icmp eq i32 %27, 0
  br i1 %28, label %29, label %34

29:                                               ; preds = %22
  %30 = load i32, i32* %2, align 4
  %31 = icmp eq i32 %30, 0
  br i1 %31, label %32, label %34

32:                                               ; preds = %29
  %33 = load i32, i32* %7, align 4
  store i32 %33, i32* %2, align 4
  br label %34

34:                                               ; preds = %32, %29, %22
  %35 = load i32, i32* %7, align 4
  %36 = sext i32 %35 to i64
  %37 = getelementptr inbounds [100 x i8], [100 x i8]* %11, i64 0, i64 %36
  %38 = load i8, i8* %37, align 1
  %39 = sext i8 %38 to i32
  %40 = icmp eq i32 %39, 0
  br i1 %40, label %41, label %46

41:                                               ; preds = %34
  %42 = load i32, i32* %3, align 4
  %43 = icmp eq i32 %42, 0
  br i1 %43, label %44, label %46

44:                                               ; preds = %41
  %45 = load i32, i32* %7, align 4
  store i32 %45, i32* %3, align 4
  br label %46

46:                                               ; preds = %44, %41, %34
  %47 = load i32, i32* %7, align 4
  %48 = sext i32 %47 to i64
  %49 = getelementptr inbounds [100 x i8], [100 x i8]* %12, i64 0, i64 %48
  %50 = load i8, i8* %49, align 1
  %51 = sext i8 %50 to i32
  %52 = icmp eq i32 %51, 0
  br i1 %52, label %53, label %58

53:                                               ; preds = %46
  %54 = load i32, i32* %4, align 4
  %55 = icmp eq i32 %54, 0
  br i1 %55, label %56, label %58

56:                                               ; preds = %53
  %57 = load i32, i32* %7, align 4
  store i32 %57, i32* %4, align 4
  br label %58

58:                                               ; preds = %56, %53, %46
  %59 = load i32, i32* %2, align 4
  %60 = icmp ne i32 %59, 0
  br i1 %60, label %61, label %68

61:                                               ; preds = %58
  %62 = load i32, i32* %3, align 4
  %63 = icmp ne i32 %62, 0
  br i1 %63, label %64, label %68

64:                                               ; preds = %61
  %65 = load i32, i32* %4, align 4
  %66 = icmp ne i32 %65, 0
  br i1 %66, label %67, label %68

67:                                               ; preds = %64
  br label %72

68:                                               ; preds = %64, %61, %58
  br label %69

69:                                               ; preds = %68
  %70 = load i32, i32* %7, align 4
  %71 = add nsw i32 %70, 1
  store i32 %71, i32* %7, align 4
  br label %19

72:                                               ; preds = %67, %19
  store i32 0, i32* %6, align 4
  br label %73

73:                                               ; preds = %141, %72
  %74 = load i32, i32* %6, align 4
  %75 = load i32, i32* %2, align 4
  %76 = icmp sle i32 %74, %75
  br i1 %76, label %77, label %144

77:                                               ; preds = %73
  %78 = load i32, i32* %6, align 4
  %79 = sext i32 %78 to i64
  %80 = getelementptr inbounds [1000 x i8], [1000 x i8]* %10, i64 0, i64 %79
  %81 = load i8, i8* %80, align 1
  %82 = sext i8 %81 to i32
  %83 = icmp eq i32 %82, 32
  br i1 %83, label %91, label %84

84:                                               ; preds = %77
  %85 = load i32, i32* %6, align 4
  %86 = sext i32 %85 to i64
  %87 = getelementptr inbounds [1000 x i8], [1000 x i8]* %10, i64 0, i64 %86
  %88 = load i8, i8* %87, align 1
  %89 = sext i8 %88 to i32
  %90 = icmp eq i32 %89, 0
  br i1 %90, label %91, label %140

91:                                               ; preds = %84, %77
  store i32 0, i32* %7, align 4
  br label %92

92:                                               ; preds = %136, %91
  %93 = load i32, i32* %7, align 4
  %94 = load i32, i32* %3, align 4
  %95 = icmp slt i32 %93, %94
  br i1 %95, label %96, label %139

96:                                               ; preds = %92
  %97 = load i32, i32* %7, align 4
  %98 = sext i32 %97 to i64
  %99 = getelementptr inbounds [100 x i8], [100 x i8]* %11, i64 0, i64 %98
  %100 = load i8, i8* %99, align 1
  %101 = sext i8 %100 to i32
  %102 = load i32, i32* %6, align 4
  %103 = load i32, i32* %3, align 4
  %104 = sub nsw i32 %102, %103
  %105 = load i32, i32* %7, align 4
  %106 = add nsw i32 %104, %105
  %107 = sext i32 %106 to i64
  %108 = getelementptr inbounds [1000 x i8], [1000 x i8]* %10, i64 0, i64 %107
  %109 = load i8, i8* %108, align 1
  %110 = sext i8 %109 to i32
  %111 = icmp ne i32 %101, %110
  br i1 %111, label %112, label %113

112:                                              ; preds = %96
  br label %139

113:                                              ; preds = %96
  %114 = load i32, i32* %6, align 4
  %115 = load i32, i32* %3, align 4
  %116 = sub nsw i32 %114, %115
  %117 = sub nsw i32 %116, 1
  %118 = sext i32 %117 to i64
  %119 = getelementptr inbounds [1000 x i8], [1000 x i8]* %10, i64 0, i64 %118
  %120 = load i8, i8* %119, align 1
  %121 = sext i8 %120 to i32
  %122 = icmp eq i32 %121, 32
  br i1 %122, label %127, label %123

123:                                              ; preds = %113
  %124 = load i32, i32* %6, align 4
  %125 = load i32, i32* %3, align 4
  %126 = icmp eq i32 %124, %125
  br i1 %126, label %127, label %134

127:                                              ; preds = %123, %113
  %128 = load i32, i32* %6, align 4
  %129 = load i32, i32* %8, align 4
  %130 = add nsw i32 %129, 1
  store i32 %130, i32* %8, align 4
  %131 = sext i32 %129 to i64
  %132 = getelementptr inbounds [10 x i32], [10 x i32]* %5, i64 0, i64 %131
  store i32 %128, i32* %132, align 4
  %133 = load i32, i32* %3, align 4
  store i32 %133, i32* %7, align 4
  br label %134

134:                                              ; preds = %127, %123
  br label %135

135:                                              ; preds = %134
  br label %136

136:                                              ; preds = %135
  %137 = load i32, i32* %7, align 4
  %138 = add nsw i32 %137, 1
  store i32 %138, i32* %7, align 4
  br label %92

139:                                              ; preds = %112, %92
  br label %140

140:                                              ; preds = %139, %84
  br label %141

141:                                              ; preds = %140
  %142 = load i32, i32* %6, align 4
  %143 = add nsw i32 %142, 1
  store i32 %143, i32* %6, align 4
  br label %73

144:                                              ; preds = %73
  %145 = load i32, i32* %8, align 4
  %146 = icmp ne i32 %145, 0
  br i1 %146, label %147, label %196

147:                                              ; preds = %144
  store i32 0, i32* %6, align 4
  br label %148

148:                                              ; preds = %192, %147
  %149 = load i32, i32* %6, align 4
  %150 = load i32, i32* %2, align 4
  %151 = icmp slt i32 %149, %150
  br i1 %151, label %152, label %195

152:                                              ; preds = %148
  %153 = load i32, i32* %6, align 4
  %154 = load i32, i32* %9, align 4
  %155 = sext i32 %154 to i64
  %156 = getelementptr inbounds [10 x i32], [10 x i32]* %5, i64 0, i64 %155
  %157 = load i32, i32* %156, align 4
  %158 = load i32, i32* %3, align 4
  %159 = sub nsw i32 %157, %158
  %160 = icmp eq i32 %153, %159
  br i1 %160, label %161, label %184

161:                                              ; preds = %152
  store i32 0, i32* %7, align 4
  br label %162

162:                                              ; preds = %173, %161
  %163 = load i32, i32* %7, align 4
  %164 = load i32, i32* %4, align 4
  %165 = icmp slt i32 %163, %164
  br i1 %165, label %166, label %176

166:                                              ; preds = %162
  %167 = load i32, i32* %7, align 4
  %168 = sext i32 %167 to i64
  %169 = getelementptr inbounds [100 x i8], [100 x i8]* %12, i64 0, i64 %168
  %170 = load i8, i8* %169, align 1
  %171 = sext i8 %170 to i32
  %172 = call i32 (i8*, ...) @printf(i8* getelementptr inbounds ([3 x i8], [3 x i8]* @.str, i64 0, i64 0), i32 %171)
  br label %173

173:                                              ; preds = %166
  %174 = load i32, i32* %7, align 4
  %175 = add nsw i32 %174, 1
  store i32 %175, i32* %7, align 4
  br label %162

176:                                              ; preds = %162
  %177 = load i32, i32* %9, align 4
  %178 = sext i32 %177 to i64
  %179 = getelementptr inbounds [10 x i32], [10 x i32]* %5, i64 0, i64 %178
  %180 = load i32, i32* %179, align 4
  %181 = sub nsw i32 %180, 1
  store i32 %181, i32* %6, align 4
  %182 = load i32, i32* %9, align 4
  %183 = add nsw i32 %182, 1
  store i32 %183, i32* %9, align 4
  br label %191

184:                                              ; preds = %152
  %185 = load i32, i32* %6, align 4
  %186 = sext i32 %185 to i64
  %187 = getelementptr inbounds [1000 x i8], [1000 x i8]* %10, i64 0, i64 %186
  %188 = load i8, i8* %187, align 1
  %189 = sext i8 %188 to i32
  %190 = call i32 (i8*, ...) @printf(i8* getelementptr inbounds ([3 x i8], [3 x i8]* @.str, i64 0, i64 0), i32 %189)
  br label %191

191:                                              ; preds = %184, %176
  br label %192

192:                                              ; preds = %191
  %193 = load i32, i32* %6, align 4
  %194 = add nsw i32 %193, 1
  store i32 %194, i32* %6, align 4
  br label %148

195:                                              ; preds = %148
  br label %212

196:                                              ; preds = %144
  store i32 0, i32* %6, align 4
  br label %197

197:                                              ; preds = %208, %196
  %198 = load i32, i32* %6, align 4
  %199 = load i32, i32* %2, align 4
  %200 = icmp slt i32 %198, %199
  br i1 %200, label %201, label %211

201:                                              ; preds = %197
  %202 = load i32, i32* %6, align 4
  %203 = sext i32 %202 to i64
  %204 = getelementptr inbounds [1000 x i8], [1000 x i8]* %10, i64 0, i64 %203
  %205 = load i8, i8* %204, align 1
  %206 = sext i8 %205 to i32
  %207 = call i32 (i8*, ...) @printf(i8* getelementptr inbounds ([3 x i8], [3 x i8]* @.str, i64 0, i64 0), i32 %206)
  br label %208

208:                                              ; preds = %201
  %209 = load i32, i32* %6, align 4
  %210 = add nsw i32 %209, 1
  store i32 %210, i32* %6, align 4
  br label %197

211:                                              ; preds = %197
  br label %212

212:                                              ; preds = %211, %195
  ret i32 0
}

declare dso_local i32 @gets(...) #1

declare dso_local i32 @printf(i8*, ...) #1


!llvm.module.flags = !{!0}
!llvm.ident = !{!1}

!0 = !{i32 1, !"wchar_size", i32 4}
!1 = !{!"clang version 10.0.0-4ubuntu1 "}
